target datalayout = "e-m:e-p270:32:32-p271:32:32-p272:64:64-i64:64-i128:128-f80:128-n8:16:32:64-S128"
target triple = "x86_64-pc-linux-gnu"

%struct.TabList = type { [32 x %struct.Tab], i32, i32, i32 }
%struct.Tab = type { ptr, i64 }
%struct.VVCFrameContext = type { ptr, [17 x %struct.VVCFrame], ptr, ptr, %struct.VVCFrameParamSets, ptr, i32, i32, ptr, %struct.VVCDSPContext, %struct.VideoDSPContext, ptr, i64, ptr, ptr, ptr, ptr, %struct.anon }
%struct.VVCFrame = type { ptr, ptr, ptr, ptr, ptr, ptr, i32, i32, i32, %struct.VVCWindow, i32, i32, ptr, ptr, i16, i8, ptr }
%struct.VVCWindow = type { i16, i16, i16, i16 }
%struct.VVCFrameParamSets = type { ptr, ptr, %struct.VVCPH, [8 x ptr], %struct.VVCLMCS, ptr }
%struct.VVCPH = type { ptr, ptr, i32, i32, i8, [3 x i16], i8, [3 x i16], %struct.PredWeightTable }
%struct.PredWeightTable = type { [2 x i8], [2 x i8], [2 x [2 x [15 x i8]]], [2 x [3 x [15 x i16]]], [2 x [3 x [15 x i16]]] }
%struct.VVCLMCS = type { i8, i8, %union.anon.0, %union.anon.0, [17 x i16], [16 x i16] }
%union.anon.0 = type { [4096 x i16] }
%struct.VVCDSPContext = type { %struct.VVCInterDSPContext, %struct.VVCIntraDSPContext, %struct.VVCItxDSPContext, %struct.VVCLMCSDSPContext, %struct.VVCLFDSPContext, %struct.VVCSAODSPContext, %struct.VVCALFDSPContext }
%struct.VVCInterDSPContext = type { [2 x [7 x [2 x [2 x ptr]]]], [2 x [7 x [2 x [2 x ptr]]]], [2 x [7 x [2 x [2 x ptr]]]], [2 x [7 x ptr]], [2 x [7 x ptr]], [2 x [7 x ptr]], ptr, ptr, ptr, ptr, ptr, ptr, ptr, ptr, ptr, ptr, ptr, [2 x [2 x ptr]] }
%struct.VVCIntraDSPContext = type { ptr, ptr, ptr, ptr, ptr, ptr, ptr, ptr, ptr, ptr }
%struct.VVCItxDSPContext = type { ptr, ptr, [3 x [6 x ptr]], ptr, ptr }
%struct.VVCLMCSDSPContext = type { ptr }
%struct.VVCLFDSPContext = type { [2 x ptr], [2 x ptr], [2 x ptr] }
%struct.VVCSAODSPContext = type { [9 x ptr], [9 x ptr], [2 x ptr] }
%struct.VVCALFDSPContext = type { [2 x ptr], ptr, ptr, ptr }
%struct.VideoDSPContext = type { ptr, ptr }
%struct.anon = type { ptr, ptr, ptr, ptr, [2 x ptr], [2 x ptr], [2 x ptr], [2 x ptr], [2 x ptr], [3 x ptr], ptr, ptr, [2 x ptr], ptr, ptr, [2 x ptr], ptr, ptr, ptr, [2 x ptr], ptr, [3 x ptr], ptr, [2 x ptr], [2 x ptr], [2 x ptr], [2 x [3 x ptr]], [2 x ptr], [2 x ptr], [3 x ptr], [3 x ptr], [3 x [2 x ptr]], [3 x [2 x ptr]], ptr, ptr, ptr, [3 x ptr], %struct.anon.1 }
%struct.anon.1 = type { i32, i32, i32, i32, i32, i32, i32, i32, i32, i32, i32, i32 }
%struct.VVCPPS = type { ptr, [3 x i8], [6 x [3 x i8]], i16, i16, [1000 x i16], [1000 x i16], i16, i16, i16, i16, i32, i16, i16, i16, i16, ptr, ptr, ptr, ptr, ptr, i16, i16, i16, i16, i16, [1000 x i16], [1000 x i16], [1000 x i16], [1000 x i16] }

@.str.2 = private unnamed_addr constant [30 x i8] c"Assertion %s failed at %s:%d\0A\00", align 1
@.str.3 = private unnamed_addr constant [16 x i8] c"l->nb_tabs < 32\00", align 1
@.str.4 = private unnamed_addr constant [21 x i8] c"libavcodec/vvc/dec.c\00", align 1

; Function Attrs: nounwind uwtable
define internal void @tl_init(ptr noundef %0, i32 noundef %1, i32 noundef %2) #0 {
  %4 = alloca ptr, align 8
  %5 = alloca i32, align 4
  %6 = alloca i32, align 4
  store ptr %0, ptr %4, align 8, !tbaa !14
  store i32 %1, ptr %5, align 4, !tbaa !10
  store i32 %2, ptr %6, align 4, !tbaa !10
  %7 = load ptr, ptr %4, align 8, !tbaa !14
  %8 = getelementptr inbounds nuw %struct.TabList, ptr %7, i32 0, i32 1
  store i32 0, ptr %8, align 8, !tbaa !18
  %9 = load i32, ptr %5, align 4, !tbaa !10
  %10 = load ptr, ptr %4, align 8, !tbaa !14
  %11 = getelementptr inbounds nuw %struct.TabList, ptr %10, i32 0, i32 2
  store i32 %9, ptr %11, align 4, !tbaa !16
  %12 = load i32, ptr %6, align 4, !tbaa !10
  %13 = load ptr, ptr %4, align 8, !tbaa !14
  %14 = getelementptr inbounds nuw %struct.TabList, ptr %13, i32 0, i32 3
  store i32 %12, ptr %14, align 8, !tbaa !173
  ret void
}

; Function Attrs: nounwind uwtable
define internal void @min_pu_tl_init(ptr noundef %0, ptr noundef %1) #0 {
  %3 = alloca ptr, align 8
  %4 = alloca ptr, align 8
  %5 = alloca ptr, align 8
  %6 = alloca i32, align 4
  %7 = alloca i32, align 4
  store ptr %0, ptr %3, align 8, !tbaa !14
  store ptr %1, ptr %4, align 8, !tbaa !4
  call void @llvm.lifetime.start.p0(i64 8, ptr %5) #9
  %8 = load ptr, ptr %4, align 8, !tbaa !4
  %9 = getelementptr inbounds nuw %struct.VVCFrameContext, ptr %8, i32 0, i32 4
  %10 = getelementptr inbounds nuw %struct.VVCFrameParamSets, ptr %9, i32 0, i32 1
  %11 = load ptr, ptr %10, align 8, !tbaa !115
  store ptr %11, ptr %5, align 8, !tbaa !116
  call void @llvm.lifetime.start.p0(i64 4, ptr %6) #9
  %12 = load ptr, ptr %5, align 8, !tbaa !116
  %13 = icmp ne ptr %12, null
  br i1 %13, label %14, label %24

14:                                               ; preds = %2
  %15 = load ptr, ptr %5, align 8, !tbaa !116
  %16 = getelementptr inbounds nuw %struct.VVCPPS, ptr %15, i32 0, i32 12
  %17 = load i16, ptr %16, align 8, !tbaa !130
  %18 = zext i16 %17 to i32
  %19 = load ptr, ptr %5, align 8, !tbaa !116
  %20 = getelementptr inbounds nuw %struct.VVCPPS, ptr %19, i32 0, i32 13
  %21 = load i16, ptr %20, align 2, !tbaa !131
  %22 = zext i16 %21 to i32
  %23 = mul nsw i32 %18, %22
  br label %25

24:                                               ; preds = %2
  br label %25

25:                                               ; preds = %24, %14
  %26 = phi i32 [ %23, %14 ], [ 0, %24 ]
  store i32 %26, ptr %6, align 4, !tbaa !10
  call void @llvm.lifetime.start.p0(i64 4, ptr %7) #9
  %27 = load ptr, ptr %4, align 8, !tbaa !4
  %28 = getelementptr inbounds nuw %struct.VVCFrameContext, ptr %27, i32 0, i32 17
  %29 = getelementptr inbounds nuw %struct.anon, ptr %28, i32 0, i32 37
  %30 = getelementptr inbounds nuw %struct.anon.1, ptr %29, i32 0, i32 3
  %31 = load i32, ptr %30, align 4, !tbaa !132
  %32 = load i32, ptr %6, align 4, !tbaa !10
  %33 = icmp ne i32 %31, %32
  %34 = zext i1 %33 to i32
  store i32 %34, ptr %7, align 4, !tbaa !10
  %35 = load ptr, ptr %3, align 8, !tbaa !14
  %36 = load i32, ptr %7, align 4, !tbaa !10
  call void @tl_init(ptr noundef %35, i32 noundef 1, i32 noundef %36)
  br label %37

37:                                               ; preds = %25
  br label %38

38:                                               ; preds = %37
  %39 = load ptr, ptr %3, align 8, !tbaa !14
  %40 = getelementptr inbounds nuw %struct.TabList, ptr %39, i32 0, i32 1
  %41 = load i32, ptr %40, align 8, !tbaa !18
  %42 = icmp slt i32 %41, 32
  br i1 %42, label %44, label %43

43:                                               ; preds = %38
  call void (ptr, i32, ptr, ...) @av_log(ptr noundef null, i32 noundef 0, ptr noundef @.str.2, ptr noundef @.str.3, ptr noundef @.str.4, i32 noundef 168)
  call void @abort() #11
  unreachable

44:                                               ; preds = %38
  br label %45

45:                                               ; preds = %44
  br label %46

46:                                               ; preds = %45
  %47 = load ptr, ptr %4, align 8, !tbaa !4
  %48 = getelementptr inbounds nuw %struct.VVCFrameContext, ptr %47, i32 0, i32 17
  %49 = getelementptr inbounds nuw %struct.anon, ptr %48, i32 0, i32 17
  %50 = load ptr, ptr %3, align 8, !tbaa !14
  %51 = getelementptr inbounds nuw %struct.TabList, ptr %50, i32 0, i32 0
  %52 = load ptr, ptr %3, align 8, !tbaa !14
  %53 = getelementptr inbounds nuw %struct.TabList, ptr %52, i32 0, i32 1
  %54 = load i32, ptr %53, align 8, !tbaa !18
  %55 = sext i32 %54 to i64
  %56 = getelementptr inbounds [32 x %struct.Tab], ptr %51, i64 0, i64 %55
  %57 = getelementptr inbounds nuw %struct.Tab, ptr %56, i32 0, i32 0
  store ptr %49, ptr %57, align 8, !tbaa !21
  %58 = load i32, ptr %6, align 4, !tbaa !10
  %59 = sext i32 %58 to i64
  %60 = mul i64 1, %59
  %61 = load ptr, ptr %3, align 8, !tbaa !14
  %62 = getelementptr inbounds nuw %struct.TabList, ptr %61, i32 0, i32 0
  %63 = load ptr, ptr %3, align 8, !tbaa !14
  %64 = getelementptr inbounds nuw %struct.TabList, ptr %63, i32 0, i32 1
  %65 = load i32, ptr %64, align 8, !tbaa !18
  %66 = sext i32 %65 to i64
  %67 = getelementptr inbounds [32 x %struct.Tab], ptr %62, i64 0, i64 %66
  %68 = getelementptr inbounds nuw %struct.Tab, ptr %67, i32 0, i32 1
  store i64 %60, ptr %68, align 8, !tbaa !25
  %69 = load ptr, ptr %3, align 8, !tbaa !14
  %70 = getelementptr inbounds nuw %struct.TabList, ptr %69, i32 0, i32 1
  %71 = load i32, ptr %70, align 8, !tbaa !18
  %72 = add nsw i32 %71, 1
  store i32 %72, ptr %70, align 8, !tbaa !18
  br label %73

73:                                               ; preds = %46
  br label %74

74:                                               ; preds = %73
  call void @llvm.lifetime.end.p0(i64 4, ptr %7) #9
  call void @llvm.lifetime.end.p0(i64 4, ptr %6) #9
  call void @llvm.lifetime.end.p0(i64 8, ptr %5) #9
  ret void
}