; Function Attrs: mustprogress nofree norecurse nosync nounwind willreturn memory(read, argmem: readwrite, inaccessiblemem: none) uwtable
define internal void @min_pu_tl_init(ptr noundef writeonly captures(none) initializes((0, 16), (512, 524)) %0, ptr noundef %1) #3 {
  %3 = getelementptr inbounds nuw i8, ptr %1, i64 1936
  %4 = load ptr, ptr %3, align 8, !tbaa !158
  %.not = icmp eq ptr %4, null
  br i1 %.not, label %13, label %5

5:                                                ; preds = %2
  %6 = getelementptr inbounds nuw i8, ptr %4, i64 4048
  %7 = load i16, ptr %6, align 8, !tbaa !162
  %8 = zext i16 %7 to i32
  %9 = getelementptr inbounds nuw i8, ptr %4, i64 4050
  %10 = load i16, ptr %9, align 2, !tbaa !163
  %11 = zext i16 %10 to i32
  %12 = mul nuw nsw i32 %11, %8
  br label %13

13:                                               ; preds = %5, %2
  %14 = phi i32 [ %12, %5 ], [ 0, %2 ]
  %15 = getelementptr inbounds nuw i8, ptr %1, i64 21948
  %16 = load i32, ptr %15, align 4, !tbaa !172
  %17 = icmp ne i32 %16, %14
  %18 = zext i1 %17 to i32
  %19 = getelementptr inbounds nuw i8, ptr %0, i64 512
  %20 = getelementptr inbounds nuw i8, ptr %0, i64 516
  store i32 1, ptr %20, align 4, !tbaa !10
  %21 = getelementptr inbounds nuw i8, ptr %0, i64 520
  store i32 %18, ptr %21, align 8, !tbaa !167
  %22 = getelementptr inbounds nuw i8, ptr %1, i64 21544
  store ptr %22, ptr %0, align 8, !tbaa !13
  %23 = zext nneg i32 %14 to i64
  %24 = getelementptr inbounds nuw i8, ptr %0, i64 8
  store i64 %23, ptr %24, align 8, !tbaa !17
  store i32 1, ptr %19, align 8, !tbaa !18
  ret void
}